target datalayout = "e-m:e-p270:32:32-p271:32:32-p272:64:64-i64:64-i128:128-f80:128-n8:16:32:64-S128"
target triple = "x86_64-pc-linux-gnu"

@.str.24 = private unnamed_addr constant [28 x i8] c"../openssl/test/test_test.c\00", align 1
@stderr = external global ptr, align 8
@.str.47 = private unnamed_addr constant [19 x i8] c"# FATAL: %s != %d\0A\00", align 1
@.str.139 = private unnamed_addr constant [28 x i8] c"TEST_ulong_eq(919ul, 919ul)\00", align 1
@.str.140 = private unnamed_addr constant [6 x i8] c"919ul\00", align 1
@.str.141 = private unnamed_addr constant [30 x i8] c"TEST_ulong_eq(919ul, 10234ul)\00", align 1
@.str.142 = private unnamed_addr constant [8 x i8] c"10234ul\00", align 1
@.str.143 = private unnamed_addr constant [28 x i8] c"TEST_ulong_ne(8190ul, 66ul)\00", align 1
@.str.144 = private unnamed_addr constant [7 x i8] c"8190ul\00", align 1
@.str.145 = private unnamed_addr constant [5 x i8] c"66ul\00", align 1
@.str.146 = private unnamed_addr constant [32 x i8] c"TEST_ulong_ne(10555ul, 10555ul)\00", align 1
@.str.147 = private unnamed_addr constant [8 x i8] c"10555ul\00", align 1
@.str.148 = private unnamed_addr constant [34 x i8] c"TEST_ulong_lt(10234ul, 1000000ul)\00", align 1
@.str.149 = private unnamed_addr constant [10 x i8] c"1000000ul\00", align 1
@.str.150 = private unnamed_addr constant [34 x i8] c"TEST_ulong_lt(1000000ul, 10234ul)\00", align 1
@.str.151 = private unnamed_addr constant [34 x i8] c"TEST_ulong_le(10234ul, 1000000ul)\00", align 1
@.str.152 = private unnamed_addr constant [34 x i8] c"TEST_ulong_le(100000ul, 100000ul)\00", align 1
@.str.153 = private unnamed_addr constant [9 x i8] c"100000ul\00", align 1
@.str.154 = private unnamed_addr constant [34 x i8] c"TEST_ulong_le(1000000ul, 10234ul)\00", align 1
@.str.155 = private unnamed_addr constant [33 x i8] c"TEST_ulong_gt(100000000ul, 22ul)\00", align 1
@.str.156 = private unnamed_addr constant [12 x i8] c"100000000ul\00", align 1
@.str.157 = private unnamed_addr constant [5 x i8] c"22ul\00", align 1
@.str.158 = private unnamed_addr constant [33 x i8] c"TEST_ulong_gt(22ul, 100000000ul)\00", align 1
@.str.159 = private unnamed_addr constant [33 x i8] c"TEST_ulong_ge(100000000ul, 22ul)\00", align 1
@.str.160 = private unnamed_addr constant [32 x i8] c"TEST_ulong_ge(10555ul, 10555ul)\00", align 1
@.str.161 = private unnamed_addr constant [33 x i8] c"TEST_ulong_ge(22ul, 100000000ul)\00", align 1

; Function Attrs: nounwind uwtable
define internal i32 @test_case(i32 noundef %0, ptr noundef %1, i32 noundef %2) #0 {
  %4 = alloca i32, align 4
  %5 = alloca i32, align 4
  %6 = alloca ptr, align 8
  %7 = alloca i32, align 4
  store i32 %0, ptr %5, align 4, !tbaa !4
  store ptr %1, ptr %6, align 8, !tbaa !9
  store i32 %2, ptr %7, align 4, !tbaa !4
  %8 = load i32, ptr %7, align 4, !tbaa !4
  %9 = load i32, ptr %5, align 4, !tbaa !4
  %10 = icmp ne i32 %8, %9
  br i1 %10, label %11, label %16

11:                                               ; preds = %3
  %12 = load ptr, ptr @stderr, align 8, !tbaa !16
  %13 = load ptr, ptr %6, align 8, !tbaa !9
  %14 = load i32, ptr %5, align 4, !tbaa !4
  %15 = call i32 (ptr, ptr, ...) @fprintf(ptr noundef %12, ptr noundef @.str.47, ptr noundef %13, i32 noundef %14) #7
  store i32 0, ptr %4, align 4
  br label %17

16:                                               ; preds = %3
  store i32 1, ptr %4, align 4
  br label %17

17:                                               ; preds = %16, %11
  %18 = load i32, ptr %4, align 4
  ret i32 %18
}

; Function Attrs: nounwind uwtable
define internal i32 @test_ulong() #0 {
  %1 = alloca i32, align 4
  %2 = call i32 @test_ulong_eq(ptr noundef @.str.24, i32 noundef 150, ptr noundef @.str.140, ptr noundef @.str.140, i64 noundef 919, i64 noundef 919)
  %3 = call i32 @test_case(i32 noundef 1, ptr noundef @.str.139, i32 noundef %2)
  %4 = icmp ne i32 %3, 0
  br i1 %4, label %5, label %57

5:                                                ; preds = %0
  %6 = call i32 @test_ulong_eq(ptr noundef @.str.24, i32 noundef 151, ptr noundef @.str.140, ptr noundef @.str.142, i64 noundef 919, i64 noundef 10234)
  %7 = call i32 @test_case(i32 noundef 0, ptr noundef @.str.141, i32 noundef %6)
  %8 = icmp ne i32 %7, 0
  br i1 %8, label %9, label %57

9:                                                ; preds = %5
  %10 = call i32 @test_ulong_ne(ptr noundef @.str.24, i32 noundef 152, ptr noundef @.str.144, ptr noundef @.str.145, i64 noundef 8190, i64 noundef 66)
  %11 = call i32 @test_case(i32 noundef 1, ptr noundef @.str.143, i32 noundef %10)
  %12 = icmp ne i32 %11, 0
  br i1 %12, label %13, label %57

13:                                               ; preds = %9
  %14 = call i32 @test_ulong_ne(ptr noundef @.str.24, i32 noundef 153, ptr noundef @.str.147, ptr noundef @.str.147, i64 noundef 10555, i64 noundef 10555)
  %15 = call i32 @test_case(i32 noundef 0, ptr noundef @.str.146, i32 noundef %14)
  %16 = icmp ne i32 %15, 0
  br i1 %16, label %17, label %57

17:                                               ; preds = %13
  %18 = call i32 @test_ulong_lt(ptr noundef @.str.24, i32 noundef 154, ptr noundef @.str.142, ptr noundef @.str.149, i64 noundef 10234, i64 noundef 1000000)
  %19 = call i32 @test_case(i32 noundef 1, ptr noundef @.str.148, i32 noundef %18)
  %20 = icmp ne i32 %19, 0
  br i1 %20, label %21, label %57

21:                                               ; preds = %17
  %22 = call i32 @test_ulong_lt(ptr noundef @.str.24, i32 noundef 155, ptr noundef @.str.149, ptr noundef @.str.142, i64 noundef 1000000, i64 noundef 10234)
  %23 = call i32 @test_case(i32 noundef 0, ptr noundef @.str.150, i32 noundef %22)
  %24 = icmp ne i32 %23, 0
  br i1 %24, label %25, label %57

25:                                               ; preds = %21
  %26 = call i32 @test_ulong_le(ptr noundef @.str.24, i32 noundef 156, ptr noundef @.str.142, ptr noundef @.str.149, i64 noundef 10234, i64 noundef 1000000)
  %27 = call i32 @test_case(i32 noundef 1, ptr noundef @.str.151, i32 noundef %26)
  %28 = icmp ne i32 %27, 0
  br i1 %28, label %29, label %57

29:                                               ; preds = %25
  %30 = call i32 @test_ulong_le(ptr noundef @.str.24, i32 noundef 157, ptr noundef @.str.153, ptr noundef @.str.153, i64 noundef 100000, i64 noundef 100000)
  %31 = call i32 @test_case(i32 noundef 1, ptr noundef @.str.152, i32 noundef %30)
  %32 = icmp ne i32 %31, 0
  br i1 %32, label %33, label %57

33:                                               ; preds = %29
  %34 = call i32 @test_ulong_le(ptr noundef @.str.24, i32 noundef 158, ptr noundef @.str.149, ptr noundef @.str.142, i64 noundef 1000000, i64 noundef 10234)
  %35 = call i32 @test_case(i32 noundef 0, ptr noundef @.str.154, i32 noundef %34)
  %36 = icmp ne i32 %35, 0
  br i1 %36, label %37, label %57

37:                                               ; preds = %33
  %38 = call i32 @test_ulong_gt(ptr noundef @.str.24, i32 noundef 159, ptr noundef @.str.156, ptr noundef @.str.157, i64 noundef 100000000, i64 noundef 22)
  %39 = call i32 @test_case(i32 noundef 1, ptr noundef @.str.155, i32 noundef %38)
  %40 = icmp ne i32 %39, 0
  br i1 %40, label %41, label %57

41:                                               ; preds = %37
  %42 = call i32 @test_ulong_gt(ptr noundef @.str.24, i32 noundef 160, ptr noundef @.str.157, ptr noundef @.str.156, i64 noundef 22, i64 noundef 100000000)
  %43 = call i32 @test_case(i32 noundef 0, ptr noundef @.str.158, i32 noundef %42)
  %44 = icmp ne i32 %43, 0
  br i1 %44, label %45, label %57

45:                                               ; preds = %41
  %46 = call i32 @test_ulong_ge(ptr noundef @.str.24, i32 noundef 161, ptr noundef @.str.156, ptr noundef @.str.157, i64 noundef 100000000, i64 noundef 22)
  %47 = call i32 @test_case(i32 noundef 1, ptr noundef @.str.159, i32 noundef %46)
  %48 = icmp ne i32 %47, 0
  br i1 %48, label %49, label %57

49:                                               ; preds = %45
  %50 = call i32 @test_ulong_ge(ptr noundef @.str.24, i32 noundef 162, ptr noundef @.str.147, ptr noundef @.str.147, i64 noundef 10555, i64 noundef 10555)
  %51 = call i32 @test_case(i32 noundef 1, ptr noundef @.str.160, i32 noundef %50)
  %52 = icmp ne i32 %51, 0
  br i1 %52, label %53, label %57

53:                                               ; preds = %49
  %54 = call i32 @test_ulong_ge(ptr noundef @.str.24, i32 noundef 163, ptr noundef @.str.157, ptr noundef @.str.156, i64 noundef 22, i64 noundef 100000000)
  %55 = call i32 @test_case(i32 noundef 0, ptr noundef @.str.161, i32 noundef %54)
  %56 = icmp ne i32 %55, 0
  br i1 %56, label %58, label %57

57:                                               ; preds = %53, %49, %45, %41, %37, %33, %29, %25, %21, %17, %13, %9, %5, %0
  br label %59

58:                                               ; preds = %53
  store i32 1, ptr %1, align 4
  br label %60

59:                                               ; preds = %57
  store i32 0, ptr %1, align 4
  br label %60

60:                                               ; preds = %59, %58
  %61 = load i32, ptr %1, align 4
  ret i32 %61
}