; Function Attrs: nounwind uwtable
define internal range(i32 0, 2) i32 @test_ulong() #0 {
  %1 = tail call i32 @test_ulong_eq(ptr noundef nonnull @.str.24, i32 noundef 150, ptr noundef nonnull @.str.140, ptr noundef nonnull @.str.140, i64 noundef 919, i64 noundef 919) #5
  %.not.i = icmp eq i32 %1, 1
  br i1 %.not.i, label %test_case.exit, label %test_case.exit.thread

test_case.exit.thread:                            ; preds = %0
  %2 = load ptr, ptr @stderr, align 8, !tbaa !4
  %3 = tail call i32 (ptr, ptr, ...) @fprintf(ptr noundef %2, ptr noundef nonnull @.str.47, ptr noundef nonnull @.str.139, i32 noundef 1) #6
  br label %test_case.exit52

test_case.exit:                                   ; preds = %0
  %4 = tail call i32 @test_ulong_eq(ptr noundef nonnull @.str.24, i32 noundef 151, ptr noundef nonnull @.str.140, ptr noundef nonnull @.str.142, i64 noundef 919, i64 noundef 10234) #5
  %.not.i14 = icmp eq i32 %4, 0
  br i1 %.not.i14, label %test_case.exit16, label %test_case.exit16.thread

test_case.exit16.thread:                          ; preds = %test_case.exit
  %5 = load ptr, ptr @stderr, align 8, !tbaa !4
  %6 = tail call i32 (ptr, ptr, ...) @fprintf(ptr noundef %5, ptr noundef nonnull @.str.47, ptr noundef nonnull @.str.141, i32 noundef 0) #6
  br label %test_case.exit52

test_case.exit16:                                 ; preds = %test_case.exit
  %7 = tail call i32 @test_ulong_ne(ptr noundef nonnull @.str.24, i32 noundef 152, ptr noundef nonnull @.str.144, ptr noundef nonnull @.str.145, i64 noundef 8190, i64 noundef 66) #5
  %.not.i17 = icmp eq i32 %7, 1
  br i1 %.not.i17, label %test_case.exit19, label %test_case.exit19.thread

test_case.exit19.thread:                          ; preds = %test_case.exit16
  %8 = load ptr, ptr @stderr, align 8, !tbaa !4
  %9 = tail call i32 (ptr, ptr, ...) @fprintf(ptr noundef %8, ptr noundef nonnull @.str.47, ptr noundef nonnull @.str.143, i32 noundef 1) #6
  br label %test_case.exit52

test_case.exit19:                                 ; preds = %test_case.exit16
  %10 = tail call i32 @test_ulong_ne(ptr noundef nonnull @.str.24, i32 noundef 153, ptr noundef nonnull @.str.147, ptr noundef nonnull @.str.147, i64 noundef 10555, i64 noundef 10555) #5
  %.not.i20 = icmp eq i32 %10, 0
  br i1 %.not.i20, label %test_case.exit22, label %test_case.exit22.thread

test_case.exit22.thread:                          ; preds = %test_case.exit19
  %11 = load ptr, ptr @stderr, align 8, !tbaa !4
  %12 = tail call i32 (ptr, ptr, ...) @fprintf(ptr noundef %11, ptr noundef nonnull @.str.47, ptr noundef nonnull @.str.146, i32 noundef 0) #6
  br label %test_case.exit52

test_case.exit22:                                 ; preds = %test_case.exit19
  %13 = tail call i32 @test_ulong_lt(ptr noundef nonnull @.str.24, i32 noundef 154, ptr noundef nonnull @.str.142, ptr noundef nonnull @.str.149, i64 noundef 10234, i64 noundef 1000000) #5
  %.not.i23 = icmp eq i32 %13, 1
  br i1 %.not.i23, label %test_case.exit25, label %test_case.exit25.thread

test_case.exit25.thread:                          ; preds = %test_case.exit22
  %14 = load ptr, ptr @stderr, align 8, !tbaa !4
  %15 = tail call i32 (ptr, ptr, ...) @fprintf(ptr noundef %14, ptr noundef nonnull @.str.47, ptr noundef nonnull @.str.148, i32 noundef 1) #6
  br label %test_case.exit52

test_case.exit25:                                 ; preds = %test_case.exit22
  %16 = tail call i32 @test_ulong_lt(ptr noundef nonnull @.str.24, i32 noundef 155, ptr noundef nonnull @.str.149, ptr noundef nonnull @.str.142, i64 noundef 1000000, i64 noundef 10234) #5
  %.not.i26 = icmp eq i32 %16, 0
  br i1 %.not.i26, label %test_case.exit28, label %test_case.exit28.thread

test_case.exit28.thread:                          ; preds = %test_case.exit25
  %17 = load ptr, ptr @stderr, align 8, !tbaa !4
  %18 = tail call i32 (ptr, ptr, ...) @fprintf(ptr noundef %17, ptr noundef nonnull @.str.47, ptr noundef nonnull @.str.150, i32 noundef 0) #6
  br label %test_case.exit52

test_case.exit28:                                 ; preds = %test_case.exit25
  %19 = tail call i32 @test_ulong_le(ptr noundef nonnull @.str.24, i32 noundef 156, ptr noundef nonnull @.str.142, ptr noundef nonnull @.str.149, i64 noundef 10234, i64 noundef 1000000) #5
  %.not.i29 = icmp eq i32 %19, 1
  br i1 %.not.i29, label %test_case.exit31, label %test_case.exit31.thread

test_case.exit31.thread:                          ; preds = %test_case.exit28
  %20 = load ptr, ptr @stderr, align 8, !tbaa !4
  %21 = tail call i32 (ptr, ptr, ...) @fprintf(ptr noundef %20, ptr noundef nonnull @.str.47, ptr noundef nonnull @.str.151, i32 noundef 1) #6
  br label %test_case.exit52

test_case.exit31:                                 ; preds = %test_case.exit28
  %22 = tail call i32 @test_ulong_le(ptr noundef nonnull @.str.24, i32 noundef 157, ptr noundef nonnull @.str.153, ptr noundef nonnull @.str.153, i64 noundef 100000, i64 noundef 100000) #5
  %.not.i32 = icmp eq i32 %22, 1
  br i1 %.not.i32, label %test_case.exit34, label %test_case.exit34.thread

test_case.exit34.thread:                          ; preds = %test_case.exit31
  %23 = load ptr, ptr @stderr, align 8, !tbaa !4
  %24 = tail call i32 (ptr, ptr, ...) @fprintf(ptr noundef %23, ptr noundef nonnull @.str.47, ptr noundef nonnull @.str.152, i32 noundef 1) #6
  br label %test_case.exit52

test_case.exit34:                                 ; preds = %test_case.exit31
  %25 = tail call i32 @test_ulong_le(ptr noundef nonnull @.str.24, i32 noundef 158, ptr noundef nonnull @.str.149, ptr noundef nonnull @.str.142, i64 noundef 1000000, i64 noundef 10234) #5
  %.not.i35 = icmp eq i32 %25, 0
  br i1 %.not.i35, label %test_case.exit37, label %test_case.exit37.thread

test_case.exit37.thread:                          ; preds = %test_case.exit34
  %26 = load ptr, ptr @stderr, align 8, !tbaa !4
  %27 = tail call i32 (ptr, ptr, ...) @fprintf(ptr noundef %26, ptr noundef nonnull @.str.47, ptr noundef nonnull @.str.154, i32 noundef 0) #6
  br label %test_case.exit52

test_case.exit37:                                 ; preds = %test_case.exit34
  %28 = tail call i32 @test_ulong_gt(ptr noundef nonnull @.str.24, i32 noundef 159, ptr noundef nonnull @.str.156, ptr noundef nonnull @.str.157, i64 noundef 100000000, i64 noundef 22) #5
  %.not.i38 = icmp eq i32 %28, 1
  br i1 %.not.i38, label %test_case.exit40, label %test_case.exit40.thread

test_case.exit40.thread:                          ; preds = %test_case.exit37
  %29 = load ptr, ptr @stderr, align 8, !tbaa !4
  %30 = tail call i32 (ptr, ptr, ...) @fprintf(ptr noundef %29, ptr noundef nonnull @.str.47, ptr noundef nonnull @.str.155, i32 noundef 1) #6
  br label %test_case.exit52

test_case.exit40:                                 ; preds = %test_case.exit37
  %31 = tail call i32 @test_ulong_gt(ptr noundef nonnull @.str.24, i32 noundef 160, ptr noundef nonnull @.str.157, ptr noundef nonnull @.str.156, i64 noundef 22, i64 noundef 100000000) #5
  %.not.i41 = icmp eq i32 %31, 0
  br i1 %.not.i41, label %test_case.exit43, label %test_case.exit43.thread

test_case.exit43.thread:                          ; preds = %test_case.exit40
  %32 = load ptr, ptr @stderr, align 8, !tbaa !4
  %33 = tail call i32 (ptr, ptr, ...) @fprintf(ptr noundef %32, ptr noundef nonnull @.str.47, ptr noundef nonnull @.str.158, i32 noundef 0) #6
  br label %test_case.exit52

test_case.exit43:                                 ; preds = %test_case.exit40
  %34 = tail call i32 @test_ulong_ge(ptr noundef nonnull @.str.24, i32 noundef 161, ptr noundef nonnull @.str.156, ptr noundef nonnull @.str.157, i64 noundef 100000000, i64 noundef 22) #5
  %.not.i44 = icmp eq i32 %34, 1
  br i1 %.not.i44, label %test_case.exit46, label %test_case.exit46.thread

test_case.exit46.thread:                          ; preds = %test_case.exit43
  %35 = load ptr, ptr @stderr, align 8, !tbaa !4
  %36 = tail call i32 (ptr, ptr, ...) @fprintf(ptr noundef %35, ptr noundef nonnull @.str.47, ptr noundef nonnull @.str.159, i32 noundef 1) #6
  br label %test_case.exit52

test_case.exit46:                                 ; preds = %test_case.exit43
  %37 = tail call i32 @test_ulong_ge(ptr noundef nonnull @.str.24, i32 noundef 162, ptr noundef nonnull @.str.147, ptr noundef nonnull @.str.147, i64 noundef 10555, i64 noundef 10555) #5
  %.not.i47 = icmp eq i32 %37, 1
  br i1 %.not.i47, label %test_case.exit49, label %test_case.exit49.thread

test_case.exit49.thread:                          ; preds = %test_case.exit46
  %38 = load ptr, ptr @stderr, align 8, !tbaa !4
  %39 = tail call i32 (ptr, ptr, ...) @fprintf(ptr noundef %38, ptr noundef nonnull @.str.47, ptr noundef nonnull @.str.160, i32 noundef 1) #6
  br label %test_case.exit52

test_case.exit49:                                 ; preds = %test_case.exit46
  %40 = tail call i32 @test_ulong_ge(ptr noundef nonnull @.str.24, i32 noundef 163, ptr noundef nonnull @.str.157, ptr noundef nonnull @.str.156, i64 noundef 22, i64 noundef 100000000) #5
  %.not.i50 = icmp eq i32 %40, 0
  br i1 %.not.i50, label %test_case.exit52, label %test_case.exit52.thread

test_case.exit52.thread:                          ; preds = %test_case.exit49
  %41 = load ptr, ptr @stderr, align 8, !tbaa !4
  %42 = tail call i32 (ptr, ptr, ...) @fprintf(ptr noundef %41, ptr noundef nonnull @.str.47, ptr noundef nonnull @.str.161, i32 noundef 0) #6
  br label %test_case.exit52

test_case.exit52:                                 ; preds = %test_case.exit.thread, %test_case.exit16.thread, %test_case.exit19.thread, %test_case.exit22.thread, %test_case.exit25.thread, %test_case.exit28.thread, %test_case.exit31.thread, %test_case.exit34.thread, %test_case.exit37.thread, %test_case.exit40.thread, %test_case.exit43.thread, %test_case.exit46.thread, %test_case.exit49.thread, %test_case.exit52.thread, %test_case.exit49
  %.0 = phi i32 [ 1, %test_case.exit49 ], [ 0, %test_case.exit52.thread ], [ 0, %test_case.exit49.thread ], [ 0, %test_case.exit46.thread ], [ 0, %test_case.exit43.thread ], [ 0, %test_case.exit40.thread ], [ 0, %test_case.exit37.thread ], [ 0, %test_case.exit34.thread ], [ 0, %test_case.exit31.thread ], [ 0, %test_case.exit28.thread ], [ 0, %test_case.exit25.thread ], [ 0, %test_case.exit22.thread ], [ 0, %test_case.exit19.thread ], [ 0, %test_case.exit16.thread ], [ 0, %test_case.exit.thread ]
  ret i32 %.0
}